; Function Attrs: mustprogress uwtable
define hidden noundef i32 @_ZNK4cvc58internal21TheoryLeafTermContext12computeValueENS0_12NodeTemplateILb0EEEjm(ptr noundef nonnull readonly align 8 captures(none) dereferenceable(12) %0, ptr noundef readonly captures(none) %1, i32 noundef %2, i64 %3) unnamed_addr #4 align 2 personality ptr @__gxx_personality_v0 {
.noexc:
  %4 = alloca %"class.cvc5::internal::NodeTemplate", align 8
  %5 = load ptr, ptr %1, align 8, !tbaa !3
  %6 = getelementptr inbounds nuw i8, ptr %0, i64 8
  %7 = load i32, ptr %6, align 8, !tbaa !11
  call void @llvm.lifetime.start.p0(i64 8, ptr nonnull %4)
  %8 = getelementptr inbounds nuw i8, ptr %5, i64 8
  %9 = load i64, ptr %8, align 8
  %10 = trunc i64 %9 to i32
  %11 = and i32 %10, 1023
  %12 = icmp eq i32 %11, 1023
  %13 = select i1 %12, i32 -1, i32 %11
  %14 = tail call noundef i32 @_ZN4cvc58internal4kind10metaKindOfENS1_6Kind_tE(i32 noundef %13)
  %15 = icmp eq i32 %14, 2
  %16 = load i64, ptr %8, align 8
  %17 = lshr i64 %16, 32
  %18 = and i64 %17, 67108863
  %19 = sext i1 %15 to i64
  %20 = add nsw i64 %18, %19
  %21 = and i64 %20, 4294967295
  %.not.i = icmp eq i64 %21, 0
  br i1 %.not.i, label %.thread, label %22

.thread:                                          ; preds = %.noexc
  call void @llvm.lifetime.end.p0(i64 8, ptr nonnull %4)
  br label %24

22:                                               ; preds = %.noexc
  store ptr %5, ptr %4, align 8, !tbaa !3
  %23 = call noundef i32 @_ZN4cvc58internal6theory6Theory8theoryOfENS0_12NodeTemplateILb0EEENS0_7options12TheoryOfModeENS1_8TheoryIdE(ptr noundef nonnull %4, i32 noundef 0, i32 noundef 2)
  %.fr = freeze i32 %7
  %.not = icmp eq i32 %23, %.fr
  call void @llvm.lifetime.end.p0(i64 8, ptr nonnull %4)
  br i1 %.not, label %25, label %24

24:                                               ; preds = %.thread, %22
  br label %25

25:                                               ; preds = %22, %24
  %26 = phi i32 [ 1, %24 ], [ %2, %22 ]
  ret i32 %26
}